; Function Attrs: mustprogress nofree norecurse nosync nounwind willreturn memory(readwrite, inaccessiblemem: none) uwtable
define hidden void @_ZN11permutation4swapEjj(ptr noundef nonnull readonly align 8 captures(none) dereferenceable(16) %0, i32 noundef %1, i32 noundef %2) local_unnamed_addr #6 align 2 personality ptr @__gxx_personality_v0 {
  %4 = load ptr, ptr %0, align 8, !tbaa !3
  %5 = zext i32 %1 to i64
  %6 = getelementptr inbounds nuw i32, ptr %4, i64 %5
  %7 = load i32, ptr %6, align 4, !tbaa !9
  %8 = zext i32 %2 to i64
  %9 = getelementptr inbounds nuw i32, ptr %4, i64 %8
  %10 = load i32, ptr %9, align 4, !tbaa !9
  store i32 %10, ptr %6, align 4, !tbaa !9
  store i32 %7, ptr %9, align 4, !tbaa !9
  %11 = getelementptr inbounds nuw i8, ptr %0, i64 8
  %12 = load ptr, ptr %11, align 8, !tbaa !3
  %13 = zext i32 %7 to i64
  %14 = getelementptr inbounds nuw i32, ptr %12, i64 %13
  %15 = zext i32 %10 to i64
  %16 = getelementptr inbounds nuw i32, ptr %12, i64 %15
  %17 = load i32, ptr %14, align 4, !tbaa !9
  %18 = load i32, ptr %16, align 4, !tbaa !9
  store i32 %18, ptr %14, align 4, !tbaa !9
  store i32 %17, ptr %16, align 4, !tbaa !9
  ret void
}